; Function Attrs: mustprogress nounwind uwtable
define void @_ZN9grpc_core18HttpSchemeMetadata6EncodeENS0_9ValueTypeE(ptr noalias nocapture writeonly sret(%"class.grpc_core::StaticSlice") align 8 %agg.result, i8 noundef zeroext %x) local_unnamed_addr #5 align 2 {
entry:
  switch i8 %x, label %sw.default [
    i8 0, label %return
    i8 1, label %sw.bb1
  ]

sw.bb1:                                           ; preds = %entry
  br label %return

sw.default:                                       ; preds = %entry
  tail call void @abort() #19
  unreachable

return:                                           ; preds = %entry, %sw.bb1
  %.sink = phi i64 [ 5, %sw.bb1 ], [ 4, %entry ]
  %.str.14.sink = phi ptr [ @.str.14, %sw.bb1 ], [ @.str.13, %entry ]
  store ptr inttoptr (i64 1 to ptr), ptr %agg.result, align 8
  %slice.sroa.2.0.agg.result.sroa_idx.i.i2 = getelementptr inbounds i8, ptr %agg.result, i64 8
  store i64 %.sink, ptr %slice.sroa.2.0.agg.result.sroa_idx.i.i2, align 8
  %slice.sroa.3.0.agg.result.sroa_idx.i.i3 = getelementptr inbounds i8, ptr %agg.result, i64 16
  store ptr %.str.14.sink, ptr %slice.sroa.3.0.agg.result.sroa_idx.i.i3, align 8
  ret void
}